; Function Attrs: nounwind uwtable
define internal fastcc void @ppid2sid(ptr nocapture noundef readonly %0) unnamed_addr #0 {
  %2 = getelementptr inbounds i8, ptr %0, i64 8
  %3 = load i8, ptr %2, align 8
  %4 = icmp eq i8 %3, 10
  br i1 %4, label %5, label %8

5:                                                ; preds = %1
  %6 = load ptr, ptr %0, align 8
  %7 = getelementptr inbounds i8, ptr %6, i64 8
  %.phi.trans.insert = getelementptr inbounds i8, ptr %6, i64 16
  %.pre = load i8, ptr %.phi.trans.insert, align 8
  br label %8

8:                                                ; preds = %1, %5
  %9 = phi i8 [ %.pre, %5 ], [ %3, %1 ]
  %.0 = phi ptr [ %7, %5 ], [ %0, %1 ]
  %10 = icmp eq i8 %9, 6
  br i1 %10, label %11, label %24

11:                                               ; preds = %8
  %12 = load ptr, ptr %.0, align 8
  %13 = getelementptr inbounds i8, ptr %12, i64 24
  %14 = getelementptr inbounds i8, ptr %12, i64 16
  %15 = load i64, ptr %14, align 8
  %16 = and i64 %15, -8
  %17 = add i64 %16, 32
  %18 = tail call noalias ptr @_emalloc(i64 noundef %17) #25
  store i32 1, ptr %18, align 4
  %19 = getelementptr inbounds i8, ptr %18, i64 4
  store i32 22, ptr %19, align 4
  %20 = getelementptr inbounds i8, ptr %18, i64 8
  store i64 0, ptr %20, align 8
  %21 = getelementptr inbounds i8, ptr %18, i64 16
  store i64 %15, ptr %21, align 8
  %22 = getelementptr inbounds i8, ptr %18, i64 24
  tail call void @llvm.memcpy.p0.p0.i64(ptr nonnull align 8 %22, ptr nonnull align 1 %13, i64 %15, i1 false)
  %23 = getelementptr inbounds [1 x i8], ptr %22, i64 0, i64 %15
  store i8 0, ptr %23, align 1
  br label %24

24:                                               ; preds = %8, %11
  %storemerge61 = phi ptr [ %18, %11 ], [ null, %8 ]
  %storemerge = phi i8 [ 0, %11 ], [ 1, %8 ]
  store ptr %storemerge61, ptr getelementptr inbounds (%struct._php_ps_globals, ptr @ps_globals, i64 0, i32 2), align 16
  store i8 %storemerge, ptr getelementptr inbounds (%struct._php_ps_globals, ptr @ps_globals, i64 0, i32 32), align 2
  ret void
}